(dp0
S'client.058'
p1
(dp2
S'UTX'
p3
I885
sS'BA'
p4
I769
sS'WFC'
p5
I764
sS'PEP'
p6
I12
sS'AMGN'
p7
I484
sS'BAX'
p8
I457
sS'BK'
p9
I322
sS'FB'
p10
I853
sS'COST'
p11
I473
sS'LOW'
p12
I202
sS'FDX'
p13
I216
sS'AIG'
p14
I286
sS'TWX'
p15
I35
sS'MSFT'
p16
I695
sS'DIS'
p17
I815
sS'MMM'
p18
I333
sS'BRK.B'
p19
I353
sS'IBM'
p20
I275
sS'PG'
p21
I496
sS'BMY'
p22
I855
sS'MDT'
p23
I13
sS'SPG'
p24
I532
sS'VZ'
p25
I41
sS'OXY'
p26
I284
sS'CL'
p27
I124
sS'GILD'
p28
I554
sS'CVS'
p29
I905
sS'GE'
p30
I313
sS'ABT'
p31
I520
sS'APC'
p32
I961
sS'AMZN'
p33
I786
sS'WMT'
p34
I771
sS'ALL'
p35
I119
sS'PFE'
p36
I463
sS'FOXA'
p37
I496
sS'MO'
p38
I516
sS'MCD'
p39
I972
sS'SBUX'
p40
I486
sS'FCX'
p41
I989
sS'SO'
p42
I352
sS'MON'
p43
I878
sS'JNJ'
p44
I328
sS'NOV'
p45
I742
sS'APA'
p46
I602
sS'CMCSA'
p47
I163
ssS'client.059'
p48
(dp49
S'DVN'
p50
I225
sg20
I48
sg6
I932
sS'ACN'
p51
I826
sS'CAT'
p52
I688
sg13
I898
sg15
I907
sg3
I343
sg4
I814
sS'TXN'
p53
I795
sg21
I814
sS'UNP'
p54
I734
sS'WAG'
p55
I29
sS'HPQ'
p56
I192
sg34
I734
sS'V'
p57
I94
sg33
I807
sS'LMT'
p58
I312
sg18
I433
sg32
I534
sg45
I53
sS'EXC'
p59
I159
sg47
I569
ssS'client.056'
p60
(dp61
S'RTN'
p62
I737
sS'KO'
p63
I273
sg51
I777
sg12
I697
sg14
I906
sS'DOW'
p64
I69
sg17
I260
sg53
I399
sS'LLY'
p65
I941
sg19
I328
sS'NSC'
p66
I192
sg5
I259
sg36
I623
sg24
I441
sS'C'
p67
I350
sS'HAL'
p68
I170
sS'INTC'
p69
I599
sg27
I686
sg28
I673
sS'ABBV'
p70
I341
sg31
I639
sS'UNH'
p71
I547
sS'MA'
p72
I272
sS'GM'
p73
I178
sS'XOM'
p74
I182
sS'JPM'
p75
I811
sg38
I739
sS'CSCO'
p76
I254
sS'EBAY'
p77
I732
sg18
I791
sS'MET'
p78
I253
sg42
I373
sg45
I248
ssS'client.057'
p79
(dp80
g40
I861
sg35
I726
sS'GS'
p81
I187
sg20
I992
sS'CVX'
p82
I379
sg78
I580
sg37
I184
sg5
I213
sg6
I498
sg34
I38
sg18
I609
sS'HON'
p83
I939
sg10
I504
sg42
I113
sg12
I24
sS'MRK'
p84
I823
sg71
I263
sg45
I125
sg33
I70
sg16
I262
sg24
I155
ssS'client.054'
p85
(dp86
S'AXP'
p87
I775
sg50
I66
sS'USB'
p88
I905
sS'EMC'
p89
I225
sS'DD'
p90
I71
sg51
I879
sg8
I586
sg10
I769
sg12
I749
sg13
I865
sg14
I413
sg73
I207
sS'HD'
p91
I276
sg17
I38
sg62
I322
sS'AAPL'
p92
I678
sS'PM'
p93
I311
sg54
I866
sg68
I30
sS'F'
p94
I258
sg56
I288
sg29
I118
sS'T'
p95
I153
sg84
I464
sg25
I420
sg74
I3
sS'UPS'
p96
I49
sS'SLB'
p97
I132
sg24
I659
sg18
I441
sg78
I543
sg43
I209
sg32
I770
sg46
I248
sg47
I52
ssS'client.055'
p98
(dp99
S'AEP'
p100
I535
sg4
I776
sg89
I833
sS'EMR'
p101
I218
sg7
I429
sg8
I927
sg52
I829
sg12
I776
sS'COF'
p102
I145
sg14
I233
sg64
I420
sg16
I726
sg17
I916
sg19
I333
sg78
I269
sg41
I548
sg22
I128
sg93
I103
sS'GOOG'
p103
I660
sg67
I449
sg81
I612
sg69
I552
sg94
I640
sg55
I225
sg29
I823
sg30
I49
sg31
I710
sg57
I155
sg3
I201
sg35
I482
sg75
I46
sS'NKE'
p104
I58
sg24
I740
sg63
I94
sS'MDLZ'
p105
I184
sg42
I572
sg32
I144
sg46
I622
ssS'client.052'
p106
(dp107
S'COP'
p108
I52
sg104
I166
sg20
I395
sg69
I232
sg38
I108
sg66
I307
sg74
I891
sg51
I327
sg64
I975
sg40
I830
sg16
I754
sg11
I427
sg21
I7
sg88
I709
sg44
I798
sg45
I16
sg46
I499
sg14
I919
sg97
I889
sg24
I99
ssS'client.053'
p109
(dp110
g100
I653
sg87
I920
sg20
I643
sg82
I326
sg108
I759
sg5
I510
sg6
I714
sg9
I421
sg102
I259
sg81
I383
sg14
I44
sg15
I928
sg16
I251
sg17
I15
sg65
I417
sg24
I807
sg54
I175
sS'QCOM'
p111
I847
sg83
I89
sg31
I999
sg96
I70
sg97
I637
sg35
I529
sg75
I982
sg104
I397
sg63
I441
sg40
I60
sg32
I127
ssS'client.050'
p112
(dp113
g88
I590
sg82
I912
sg90
I19
sg6
I401
sg51
I784
sg8
I24
sg11
I253
sg102
I72
sg13
I990
sg53
I427
sS'TGT'
p114
I295
sg62
I683
sS'ORCL'
p115
I726
sg23
I718
sg24
I860
sg103
I969
sg68
I466
sg94
I128
sg56
I986
sg29
I490
sg70
I688
sS'GD'
p116
I850
sg7
I558
sg35
I5
sg63
I514
sg18
I179
sg43
I301
sg47
I247
ssS'client.051'
p117
(dp118
g100
I31
sg88
I576
sg5
I566
sg102
I454
sg51
I252
sg8
I462
sg101
I877
sg15
I776
sg14
I255
sg16
I663
sg53
I672
sg65
I177
sg55
I905
sg91
I909
sg23
I53
sg21
I258
sg54
I651
sg83
I605
sg56
I269
sg7
I577
sg30
I144
sg31
I712
sg33
I773
sg75
I601
sg77
I27
sg18
I305
sg43
I994
sS'MS'
p119
I17
sg46
I757
ssS'client.049'
p120
(dp121
g108
I929
sg59
I336
sg100
I40
sg84
I903
sg29
I184
sg9
I80
sg11
I977
sg12
I244
sg88
I128
sg14
I882
sg17
I656
sg65
I680
sg114
I609
sg41
I592
sg62
I546
sg115
I524
sg21
I223
sg23
I793
sg24
I498
sg81
I261
sg69
I909
sg83
I955
sg7
I176
sg70
I492
sg30
I304
sg95
I19
sg57
I825
sg3
I472
sg96
I515
sg97
I178
sg104
I237
sg19
I737
sg78
I715
sg43
I772
sg44
I113
sg47
I49
ssS'client.048'
p122
(dp123
g108
I546
sg87
I963
sg50
I575
sg4
I251
sg90
I1
sg15
I250
sg64
I189
sg53
I976
sg114
I262
sg62
I298
sg23
I609
sg34
I265
sg73
I52
sg74
I537
sg97
I742
sg37
I93
sg38
I827
sg76
I175
sg105
I206
sg42
I374
sg119
I462
sg32
I421
sg47
I154
ssS'client.045'
p124
(dp125
g100
I123
sg20
I488
sg108
I197
sg5
I666
sg90
I317
sg84
I270
sg51
I816
sg8
I264
sg9
I81
sg10
I457
sS'BAC'
p126
I82
sg101
I81
sg14
I491
sg25
I387
sg91
I891
sg114
I294
sg78
I871
sg41
I188
sg62
I509
sg21
I757
sg92
I863
sg93
I767
sg103
I436
sg26
I126
sg69
I778
sg94
I190
sg28
I355
sg56
I939
sg70
I303
sg30
I715
sg95
I202
sg57
I47
sg36
I429
sg33
I13
sg97
I769
sg35
I852
sg75
I169
sg104
I192
sg39
I600
sg16
I129
sg77
I579
sg105
I777
sg42
I183
sg119
I829
sg32
I279
sg47
I450
ssS'client.044'
p127
(dp128
g100
I267
sg92
I378
sg14
I724
sg16
I268
sg53
I499
sg105
I539
sg62
I308
sg21
I558
sg22
I20
sg24
I181
sg69
I14
sg55
I642
sg70
I461
sg30
I308
sg36
I599
sg25
I420
sg96
I59
sg75
I1000
sg37
I772
sg58
I732
sg78
I313
sg119
I544
sg44
I887
sg93
I208
ssS'client.047'
p129
(dp130
g108
I967
sg59
I699
sg5
I412
sg84
I189
sg29
I822
sg52
I946
sg10
I153
sg12
I487
sg13
I98
sg15
I817
sg76
I789
sg91
I945
sg40
I814
sg65
I705
sg114
I311
sg115
I90
sg58
I197
sg54
I299
sg67
I994
sg68
I377
sg26
I828
sg27
I361
sg28
I676
sg7
I254
sg70
I754
sg30
I346
sg95
I386
sg57
I330
sg34
I341
sg35
I697
sg104
I578
sg38
I642
sg39
I787
sg63
I41
sg77
I891
sg18
I687
sg105
I804
sg44
I657
sg126
I971
ssS'client.046'
p131
(dp132
g87
I639
sg5
I529
sg92
I524
sg52
I751
sg10
I161
sg11
I779
sg126
I811
sg14
I685
sg16
I158
sg65
I491
sg41
I811
sg62
I103
sg24
I725
sg67
I308
sg34
I957
sg30
I927
sg31
I27
sg71
I217
sg74
I197
sg97
I960
sg35
I102
sg75
I506
sg104
I586
sg37
I392
sg76
I891
sg42
I363
sg119
I480
sg45
I488
sg12
I723
ssS'client.041'
p133
(dp134
g100
I506
sg62
I670
sg88
I399
sg89
I675
sg58
I911
sg90
I9
sg101
I963
sg7
I370
sg10
I633
sg12
I204
sg102
I768
sg15
I117
sg3
I315
sg91
I791
sg59
I491
sg82
I330
sg41
I765
sg66
I634
sg28
I276
sg115
I655
sg16
I775
sg22
I471
sg92
I645
sg23
I865
sg26
I420
sg55
I186
sg29
I105
sg70
I644
sg30
I841
sg31
I772
sg95
I993
sg84
I211
sg33
I819
sg74
I801
sg96
I793
sg97
I229
sg72
I934
sg37
I139
sg38
I247
sg39
I906
sg63
I976
sg40
I61
sg42
I944
sg119
I831
sg44
I577
sg45
I232
sg46
I428
ssS'client.040'
p135
(dp136
g20
I575
sg89
I574
sg92
I778
sg29
I829
sg126
I187
sg14
I739
sg73
I215
sg53
I320
sg65
I678
sg19
I522
sg21
I379
sg22
I265
sg103
I165
sg81
I390
sg69
I515
sg56
I644
sg71
I715
sg33
I462
sg36
I645
sg39
I342
sg58
I616
sg105
I305
sg32
I682
sg46
I43
sg47
I410
ssS'client.043'
p137
(dp138
g108
I597
sg87
I440
sg50
I892
sg59
I927
sg5
I447
sg11
I132
sg126
I725
sg68
I934
sg91
I443
sg65
I4
sg62
I249
sg83
I820
sg22
I71
sg81
I206
sg55
I133
sg30
I456
sg111
I162
sg25
I222
sg96
I46
sg97
I615
sg75
I539
sg37
I16
sg39
I523
sg40
I171
sg78
I350
sg32
I648
sg47
I310
sg12
I331
ssS'client.042'
p139
(dp140
g108
I274
sg87
I582
sg50
I985
sg88
I317
sg63
I376
sg101
I422
sg51
I208
sg126
I459
sg102
I812
sg14
I443
sg3
I339
sg17
I73
sg65
I719
sg28
I415
sg24
I834
sg103
I515
sg68
I167
sg26
I465
sg69
I220
sg55
I731
sg56
I443
sg34
I210
sg111
I344
sg84
I585
sg71
I345
sg25
I138
sg74
I748
sg96
I999
sg54
I693
sg36
I586
sg37
I653
sg38
I413
sg76
I736
sg42
I501
sg43
I999
sg44
I18
sg45
I546
sg93
I970
ssS'client.070'
p141
(dp142
g82
I478
sg43
I438
sg4
I490
sg19
I278
sg27
I733
sg28
I779
sg6
I587
sg95
I109
sg18
I642
sg37
I376
sg30
I175
sg116
I188
sg97
I599
sg57
I551
sg32
I678
sg3
I302
sg74
I353
sg59
I739
sg14
I35
sg16
I947
sg17
I829
ssS'client.071'
p143
(dp144
g108
I704
sg50
I351
sg4
I177
sg5
I928
sg8
I43
sg13
I475
sg15
I150
sg88
I936
sg19
I92
sg62
I829
sg21
I10
sg17
I929
sg93
I892
sg103
I424
sg67
I745
sg69
I559
sg94
I107
sg83
I599
sg30
I570
sg31
I982
sg3
I241
sg74
I783
sg35
I829
sg75
I820
sg104
I396
sg39
I389
sg76
I205
sg18
I817
sg43
I205
sg119
I498
sg44
I917
ssS'client.072'
p145
(dp146
g87
I776
sg88
I867
sg5
I293
sg90
I411
sg6
I934
sg29
I23
sg52
I470
sg101
I8
sg17
I749
sg53
I946
sg65
I452
sg114
I160
sg23
I94
sg24
I515
sg103
I548
sg111
I3
sg69
I513
sg27
I348
sg55
I32
sg34
I5
sg31
I540
sg84
I632
sg96
I876
sg35
I526
sg32
I11
ssS'client.073'
p147
(dp148
g81
I272
sg100
I682
sg50
I738
sg20
I918
sg89
I430
sg58
I110
sg90
I915
sg6
I376
sg7
I297
sg52
I865
sg10
I343
sg12
I222
sg88
I373
sg13
I95
sg25
I676
sg91
I124
sg17
I927
sg18
I627
sg65
I308
sg82
I93
sg19
I841
sg66
I729
sg28
I945
sg115
I240
sg21
I614
sg22
I802
sg92
I464
sg93
I17
sg67
I993
sg68
I531
sg26
I536
sg94
I588
sg55
I801
sg56
I532
sg51
I651
sg30
I561
sg31
I193
sg57
I556
sg75
I462
sg33
I131
sg97
I492
sg72
I421
sg104
I264
sg76
I123
sg40
I978
sg43
I567
sg45
I151
sg46
I155
sg47
I398
sg126
I441
ssS'client.074'
p149
(dp150
g3
I816
sg54
I325
sg50
I854
sg20
I198
sg89
I184
sg5
I303
sg4
I674
sg51
I600
sg9
I457
sg12
I704
sg101
I426
sg76
I942
sg15
I588
sg73
I141
sg59
I888
sg65
I233
sg114
I445
sg105
I595
sg62
I255
sg64
I304
sg83
I480
sg24
I44
sg103
I681
sg68
I700
sg94
I43
sg55
I17
sg56
I396
sg34
I570
sg84
I553
sg71
I739
sg72
I260
sg33
I921
sg97
I268
sg46
I160
sg36
I395
sg104
I10
sg38
I700
sg39
I930
sg58
I60
sg77
I116
sg18
I28
sg78
I171
sg42
I735
sg119
I918
sg44
I741
sg45
I454
sg93
I438
sg47
I982
ssS'client.075'
p151
(dp152
g108
I483
sg87
I77
sg59
I354
sg58
I930
sg92
I547
sg6
I376
sg52
I376
sg101
I288
sg13
I715
sg15
I688
sg33
I573
sg17
I526
sg21
I669
sg22
I302
sg90
I756
sg23
I307
sg24
I111
sg103
I908
sg56
I615
sg95
I369
sg72
I962
sg73
I305
sg75
I933
sg39
I136
sg63
I867
sg43
I884
sg46
I397
ssS'client.076'
p153
(dp154
g108
I958
sg50
I955
sg5
I585
sg101
I363
sg29
I196
sg52
I798
sg84
I182
sg33
I106
sg102
I278
sg13
I275
sg15
I246
sg25
I825
sg40
I419
sg19
I518
sg105
I814
sg64
I827
sg83
I679
sg111
I368
sg24
I65
sg103
I520
sg81
I984
sg55
I30
sg56
I193
sg31
I349
sg32
I737
sg71
I382
sg75
I984
sg3
I236
sg73
I123
sg97
I706
sg72
I434
sg39
I995
sg18
I74
sg78
I433
sg42
I434
sg44
I663
sg46
I42
ssS'client.077'
p155
(dp156
g50
I627
sg20
I310
sg89
I122
sg5
I72
sg6
I233
sg29
I696
sg12
I130
sg102
I268
sg82
I218
sg114
I363
sg62
I395
sg115
I736
sg23
I940
sg81
I215
sg26
I600
sg94
I504
sg116
I837
sg71
I88
sg3
I46
sg74
I531
sg97
I671
sg35
I474
sg75
I466
sg37
I911
sg76
I157
sg77
I966
sg18
I786
sg105
I651
sg46
I80
ssS'client.078'
p157
(dp158
g56
I353
sg100
I187
sg65
I566
sg68
I907
sg20
I950
sg69
I992
sg53
I778
sg55
I469
sg63
I490
sg90
I454
sg58
I698
sg30
I645
sg8
I783
sg9
I616
sg115
I510
sg119
I672
sg29
I409
sg72
I333
sg74
I787
sg92
I466
ssS'client.079'
p159
(dp160
g108
I365
sg63
I579
sg52
I958
sg3
I327
sg91
I310
sg65
I636
sg31
I890
sg21
I62
sg22
I577
sg93
I714
sg26
I799
sg56
I313
sg34
I739
sg116
I391
sg111
I234
sg84
I994
sg71
I968
sg72
I586
sg25
I863
sg9
I625
sg36
I896
sg76
I104
sg77
I629
sg42
I484
sg43
I389
sg44
I940
sg45
I889
ssS'client.098'
p161
(dp162
g103
I670
sg20
I520
sg76
I778
sg92
I372
sg51
I343
sg8
I36
sg52
I900
sg10
I856
sg33
I643
sg126
I123
sg13
I349
sg25
I370
sg91
I387
sg59
I757
sg19
I569
sg17
I708
sg93
I421
sg54
I204
sg67
I918
sg81
I184
sg26
I904
sg94
I637
sg55
I195
sg56
I330
sg31
I420
sg44
I448
sg72
I555
sg73
I798
sg35
I746
sg75
I630
sg58
I286
sg43
I764
sg119
I598
sg32
I899
sg46
I954
sg47
I379
ssS'client.099'
p163
(dp164
g3
I396
sg100
I783
sg88
I766
sg5
I859
sg4
I804
sg51
I622
sg8
I56
sg12
I793
sg102
I595
sg15
I472
sg64
I396
sg16
I266
sg17
I581
sg20
I740
sg62
I184
sg63
I961
sg21
I782
sg23
I404
sg103
I292
sg94
I613
sg28
I732
sg56
I140
sg29
I211
sg30
I399
sg31
I851
sg84
I975
sg71
I62
sg73
I358
sg104
I232
sg37
I579
sg38
I984
sg58
I653
sg40
I291
sg42
I555
sg43
I225
sg46
I732
sg47
I326
ssS'client.092'
p165
(dp166
g87
I622
sg66
I635
sg89
I189
sg5
I891
sg92
I101
sg6
I860
sg29
I341
sg8
I287
sg126
I62
sg15
I766
sg91
I131
sg114
I193
sg62
I399
sg28
I378
sg115
I580
sg16
I878
sg22
I540
sg93
I540
sg67
I778
sg81
I106
sg26
I753
sg69
I494
sg55
I375
sg56
I775
sg31
I647
sg44
I191
sg97
I356
sg35
I435
sg37
I814
sg39
I773
sg40
I317
sg78
I321
sg43
I555
sg32
I296
ssS'client.093'
p167
(dp168
g100
I945
sg87
I5
sg50
I858
sg59
I421
sg89
I179
sg90
I220
sg101
I165
sg51
I207
sg8
I685
sg40
I699
sg102
I857
sg15
I755
sg16
I662
sg4
I720
sg53
I887
sg65
I382
sg19
I875
sg62
I501
sg55
I991
sg22
I855
sg23
I887
sg24
I848
sg103
I683
sg69
I188
sg28
I729
sg70
I510
sg30
I499
sg116
I522
sg31
I957
sg95
I313
sg84
I211
sg33
I853
sg74
I389
sg35
I46
sg114
I146
sg58
I846
sg77
I665
sg18
I269
sg105
I918
sg43
I247
sg119
I237
sg32
I548
sg45
I767
sg47
I839
ssS'client.090'
p169
(dp170
g54
I796
sg50
I12
sg20
I464
sg92
I313
sg29
I251
sg12
I309
sg101
I128
sg13
I382
sg15
I987
sg25
I586
sg17
I646
sg41
I947
sg66
I215
sg90
I671
sg23
I45
sg103
I500
sg81
I774
sg83
I279
sg56
I362
sg34
I69
sg95
I158
sg75
I657
sg33
I292
sg74
I685
sg96
I438
sg36
I873
sg104
I778
sg76
I663
sg18
I746
sg78
I450
sg42
I844
sg119
I820
sg44
I494
sg51
I564
sg126
I620
ssS'client.091'
p171
(dp172
g54
I698
sg88
I633
sg90
I474
sg6
I524
sg29
I918
sg13
I285
sg33
I44
sg91
I877
sg17
I371
sg65
I54
sg19
I349
sg24
I869
sg103
I226
sg67
I743
sg26
I92
sg27
I735
sg83
I996
sg70
I731
sg111
I882
sg75
I437
sg25
I243
sg97
I3
sg72
I735
sg37
I263
sg38
I555
sg39
I639
sg58
I1000
sg18
I683
sg78
I960
sg119
I618
sg44
I45
sg47
I572
ssS'client.096'
p173
(dp174
g27
I120
sg62
I452
sg20
I745
sg89
I233
sg5
I175
sg84
I946
sg7
I914
sg8
I593
sg10
I742
sg11
I152
sg126
I584
sg101
I264
sg13
I864
sg14
I713
sg15
I857
sg16
I558
sg4
I122
sg53
I882
sg82
I309
sg19
I54
sg78
I832
sg41
I712
sg66
I991
sg64
I416
sg21
I610
sg29
I570
sg23
I344
sg103
I381
sg68
I640
sg26
I61
sg69
I789
sg94
I110
sg83
I291
sg51
I228
sg70
I157
sg30
I32
sg95
I757
sg57
I452
sg71
I950
sg3
I652
sg74
I927
sg96
I34
sg36
I404
sg114
I725
sg77
I269
sg105
I631
sg45
I887
sg59
I411
ssS'client.097'
p175
(dp176
g3
I515
sg108
I745
sg27
I50
sg50
I458
sg20
I761
sg82
I831
sg9
I837
sg90
I402
sg102
I975
sg7
I989
sg52
I564
sg33
I490
sg12
I578
sg101
I913
sg88
I604
sg14
I152
sg64
I731
sg59
I636
sg65
I150
sg19
I456
sg41
I441
sg62
I984
sg115
I533
sg29
I235
sg23
I773
sg93
I124
sg54
I241
sg68
I287
sg69
I966
sg94
I882
sg28
I549
sg34
I79
sg70
I524
sg111
I318
sg84
I996
sg71
I780
sg25
I726
sg74
I52
sg96
I230
sg97
I80
sg37
I39
sg76
I106
sg77
I536
sg18
I658
sg42
I687
sg119
I833
sg32
I967
sg126
I847
ssS'client.094'
p177
(dp178
g108
I945
sg87
I234
sg88
I66
sg89
I472
sg63
I384
sg29
I279
sg8
I716
sg52
I454
sg13
I647
sg15
I836
sg64
I208
sg16
I29
sg17
I626
sg23
I9
sg93
I694
sg67
I498
sg68
I428
sg26
I91
sg69
I593
sg94
I998
sg28
I537
sg111
I839
sg36
I575
sg3
I133
sg74
I180
sg96
I186
sg72
I764
sg58
I859
sg77
I873
sg18
I14
sg78
I69
sg32
I942
sg45
I417
ssS'client.095'
p179
(dp180
g40
I719
sg67
I895
sg81
I928
sg20
I179
sg82
I134
sg28
I188
sg5
I750
sg90
I227
sg57
I164
sg63
I258
sg51
I923
sg19
I333
sg87
I522
sg96
I390
sg126
I429
sg102
I445
sg68
I486
sg36
I593
sg16
I412
sg17
I920
ssS'client.067'
p181
(dp182
g100
I894
sg87
I69
sg50
I66
sg92
I742
sg101
I168
sg7
I806
sg52
I393
sg12
I438
sg102
I63
sg13
I554
sg15
I380
sg73
I79
sg17
I652
sg19
I446
sg41
I128
sg90
I575
sg67
I866
sg28
I520
sg56
I985
sg116
I397
sg33
I863
sg9
I326
sg97
I126
sg75
I667
sg37
I914
sg38
I995
sg76
I124
sg43
I895
sg44
I445
ssS'client.066'
p183
(dp184
g103
I892
sg50
I135
sg5
I240
sg11
I420
sg126
I916
sg102
I808
sg13
I754
sg3
I369
sg16
I893
sg53
I263
sg65
I9
sg114
I998
sg41
I235
sg28
I730
sg21
I375
sg22
I783
sg23
I676
sg54
I551
sg81
I623
sg27
I73
sg83
I959
sg84
I732
sg33
I716
sg96
I937
sg35
I176
sg36
I987
sg77
I434
sg105
I191
sg42
I894
sg119
I381
sg44
I874
ssS'client.065'
p185
(dp186
g100
I37
sg87
I273
sg59
I898
sg108
I283
sg5
I614
sg92
I585
sg6
I461
sg51
I993
sg10
I876
sg13
I242
sg114
I371
sg62
I388
sg26
I252
sg69
I110
sg7
I616
sg111
I300
sg57
I847
sg97
I568
sg35
I419
sg36
I122
sg78
I25
sg119
I723
ssS'client.064'
p187
(dp188
g50
I887
sg20
I985
sg5
I988
sg90
I324
sg51
I921
sg8
I94
sg10
I774
sg13
I308
sg68
I602
sg14
I63
sg15
I149
sg59
I11
sg53
I558
sg65
I597
sg114
I327
sg78
I848
sg66
I403
sg64
I841
sg21
I616
sg22
I262
sg24
I144
sg81
I30
sg94
I663
sg28
I534
sg34
I899
sg116
I141
sg111
I994
sg95
I637
sg72
I725
sg73
I842
sg96
I584
sg35
I875
sg75
I320
sg40
I542
sg105
I567
sg43
I910
sg119
I359
sg32
I782
sg46
I950
ssS'client.063'
p189
(dp190
g100
I434
sg20
I349
sg89
I608
sg58
I287
sg92
I624
sg6
I334
sg9
I58
sg10
I61
sg11
I533
sg73
I457
sg126
I247
sg101
I332
sg13
I87
sg15
I24
sg3
I899
sg16
I210
sg88
I132
sg53
I690
sg74
I644
sg82
I952
sg19
I153
sg41
I75
sg62
I467
sg4
I10
sg83
I240
sg91
I961
sg5
I464
sg23
I192
sg24
I630
sg67
I553
sg69
I523
sg55
I842
sg34
I894
sg70
I377
sg14
I826
sg84
I267
sg71
I720
sg72
I814
sg33
I320
sg52
I730
sg96
I531
sg35
I262
sg36
I913
sg39
I187
sg76
I554
sg40
I390
sg32
I520
sg59
I687
sg47
I829
ssS'client.062'
p191
(dp192
g50
I386
sg4
I300
sg82
I787
sg92
I947
sg6
I120
sg7
I514
sg9
I701
sg33
I217
sg12
I503
sg14
I918
sg73
I83
sg16
I144
sg20
I699
sg19
I650
sg27
I702
sg64
I978
sg17
I63
sg23
I239
sg103
I267
sg68
I166
sg26
I465
sg69
I703
sg94
I814
sg29
I580
sg116
I360
sg3
I355
sg74
I612
sg97
I170
sg38
I372
sg39
I26
sg76
I403
sg18
I264
sg32
I40
sg45
I903
sg46
I537
ssS'client.061'
p193
(dp194
g54
I824
sg87
I741
sg50
I627
sg26
I460
sg89
I163
sg55
I410
sg47
I771
sg12
I891
sg63
I674
sg15
I307
sg34
I943
sg78
I187
sg92
I418
sg126
I95
sg9
I949
sg32
I833
sg14
I206
sg74
I176
sg96
I163
sg97
I149
sg21
I278
ssS'client.060'
p195
(dp196
g59
I215
sg6
I164
sg7
I487
sg33
I440
sg126
I538
sg73
I69
sg16
I148
sg88
I1000
sg21
I165
sg24
I958
sg81
I324
sg55
I795
sg70
I681
sg111
I331
sg95
I637
sg71
I471
sg3
I11
sg97
I667
sg75
I847
sg77
I759
sg18
I745
sg32
I493
sg93
I234
ssS'client.069'
p197
(dp198
g81
I954
sg68
I689
sg89
I513
sg19
I752
sg55
I381
sg56
I178
sg101
I828
sg6
I133
sg51
I86
sg34
I4
sg18
I809
sg20
I334
sg42
I592
sg12
I982
sg75
I43
sg13
I395
sg31
I177
sg14
I145
sg73
I448
sg21
I943
ssS'client.068'
p199
(dp200
g108
I280
sg87
I169
sg50
I689
sg4
I419
sg89
I236
sg63
I842
sg6
I401
sg8
I416
sg17
I923
sg12
I483
sg102
I414
sg13
I215
sg14
I957
sg33
I973
sg59
I294
sg65
I360
sg114
I184
sg105
I45
sg41
I986
sg28
I501
sg115
I520
sg22
I488
sg103
I978
sg81
I570
sg27
I332
sg55
I753
sg34
I53
sg25
I369
sg116
I305
sg95
I168
sg57
I28
sg36
I377
sg73
I162
sg74
I151
sg96
I912
sg68
I724
sg72
I740
sg38
I663
sg39
I978
sg76
I589
sg77
I508
sg40
I878
sg78
I386
sg42
I175
sg43
I552
sg119
I833
sg45
I719
sg46
I640
ssS'client.089'
p201
(dp202
g59
I741
sg82
I479
sg63
I46
sg92
I489
sg57
I175
sg6
I221
sg29
I130
sg9
I156
sg10
I795
sg11
I613
sg126
I971
sg13
I625
sg64
I365
sg91
I243
sg17
I884
sg53
I846
sg65
I220
sg114
I213
sg66
I15
sg5
I558
sg58
I239
sg51
I516
sg23
I613
sg67
I742
sg81
I19
sg26
I745
sg94
I92
sg28
I651
sg34
I653
sg70
I946
sg30
I437
sg111
I806
sg95
I721
sg84
I274
sg71
I129
sg3
I346
sg52
I475
sg97
I56
sg75
I584
sg37
I495
sg38
I549
sg76
I153
sg78
I344
sg43
I917
sg119
I558
sg31
I730
sg45
I365
sg46
I18
sg47
I859
ssS'client.088'
p203
(dp204
g108
I622
sg87
I366
sg50
I258
sg89
I962
sg5
I42
sg90
I995
sg7
I582
sg8
I448
sg40
I807
sg12
I605
sg101
I446
sg13
I946
sg14
I943
sg16
I774
sg53
I849
sg65
I48
sg66
I292
sg93
I435
sg103
I854
sg94
I564
sg55
I620
sg34
I586
sg70
I65
sg30
I508
sg31
I763
sg84
I167
sg72
I654
sg96
I855
sg97
I715
sg35
I869
sg75
I282
sg104
I878
sg76
I393
sg77
I153
sg18
I96
sg42
I799
sg119
I637
sg111
I301
sg45
I757
sg24
I348
sg27
I592
sg47
I961
ssS'client.081'
p205
(dp206
g108
I116
sg20
I330
sg82
I520
sg51
I646
sg8
I674
sg10
I941
sg101
I917
sg64
I412
sg17
I225
sg114
I725
sg21
I30
sg93
I381
sg54
I817
sg68
I581
sg83
I276
sg29
I909
sg70
I826
sg30
I443
sg116
I307
sg111
I318
sg95
I915
sg84
I888
sg36
I475
sg3
I485
sg96
I126
sg75
I238
sg104
I821
sg37
I851
sg24
I931
sg58
I25
sg43
I103
sg45
I983
sg46
I30
ssS'client.080'
p207
(dp208
g100
I220
sg50
I483
sg20
I963
sg82
I191
sg58
I601
sg29
I717
sg8
I239
sg52
I234
sg10
I598
sg101
I658
sg25
I726
sg19
I220
sg78
I349
sg62
I648
sg36
I865
sg24
I143
sg54
I95
sg69
I184
sg83
I636
sg56
I588
sg93
I656
sg34
I722
sg30
I482
sg116
I863
sg31
I127
sg57
I98
sg72
I4
sg3
I387
sg75
I115
sg114
I596
sg37
I227
sg39
I217
sg76
I347
sg105
I437
sg46
I833
ssS'client.083'
p209
(dp210
g108
I729
sg87
I209
sg100
I394
sg6
I553
sg29
I183
sg8
I982
sg10
I418
sg64
I460
sg65
I731
sg115
I257
sg22
I765
sg93
I152
sg67
I519
sg56
I700
sg7
I772
sg111
I135
sg95
I965
sg84
I983
sg71
I461
sg74
I407
sg97
I210
sg104
I495
sg38
I642
sg40
I468
sg42
I280
sg44
I531
sg47
I918
ssS'client.082'
p211
(dp212
g103
I809
sg67
I12
sg77
I185
sg34
I439
sg59
I500
sg27
I365
sg63
I712
sg92
I343
sg39
I341
sg76
I74
sg7
I902
sg90
I423
sg96
I995
sg18
I481
sg78
I570
sg116
I323
sg12
I80
sg45
I493
sg74
I596
sg15
I109
sg47
I399
ssS'client.085'
p213
(dp214
g20
I85
sg82
I855
sg29
I442
sg8
I923
sg52
I537
sg11
I48
sg81
I729
sg15
I87
sg14
I655
sg91
I446
sg88
I658
sg18
I754
sg19
I232
sg41
I952
sg115
I876
sg21
I216
sg22
I37
sg23
I59
sg93
I446
sg67
I610
sg68
I330
sg94
I442
sg83
I848
sg56
I733
sg16
I765
sg116
I417
sg31
I295
sg75
I947
sg9
I806
sg35
I817
sg36
I299
sg58
I409
sg77
I1000
sg40
I355
sg78
I310
sg43
I523
sg119
I975
sg45
I481
sg59
I343
ssS'client.084'
p215
(dp216
g100
I381
sg4
I806
sg82
I576
sg63
I814
sg90
I87
sg6
I780
sg8
I721
sg101
I83
sg14
I185
sg15
I673
sg16
I317
sg20
I268
sg114
I236
sg94
I308
sg115
I952
sg21
I97
sg22
I401
sg24
I414
sg103
I983
sg81
I924
sg69
I867
sg27
I862
sg83
I39
sg34
I880
sg70
I707
sg30
I743
sg116
I13
sg111
I982
sg32
I3
sg71
I639
sg74
I481
sg104
I870
sg58
I886
sg18
I745
sg105
I463
sg43
I615
sg44
I711
sg46
I18
sg47
I506
ssS'client.087'
p217
(dp218
g100
I710
sg50
I556
sg88
I753
sg8
I227
sg102
I422
sg15
I476
sg64
I13
sg17
I294
sg65
I559
sg114
I828
sg66
I834
sg93
I653
sg14
I40
sg27
I826
sg83
I272
sg31
I111
sg73
I122
sg74
I812
sg97
I194
sg46
I706
sg36
I438
sg104
I683
sg39
I239
sg40
I392
sg32
I560
sg24
I776
sg47
I732
ssS'client.086'
p219
(dp220
g108
I527
sg87
I951
sg20
I827
sg82
I423
sg5
I838
sg101
I733
sg9
I990
sg10
I747
sg73
I97
sg12
I170
sg102
I379
sg13
I203
sg64
I970
sg16
I728
sg17
I720
sg53
I8
sg65
I997
sg89
I178
sg114
I873
sg27
I447
sg115
I974
sg21
I221
sg111
I878
sg22
I990
sg93
I719
sg81
I218
sg94
I517
sg55
I787
sg30
I655
sg31
I492
sg84
I963
sg71
I410
sg25
I663
sg74
I233
sg96
I763
sg97
I396
sg75
I43
sg19
I869
sg39
I634
sg63
I330
sg18
I20
sg78
I427
sg42
I401
sg32
I978
sg45
I997
sg46
I453
sg59
I953
sg47
I1000
ssS'client.012'
p221
(dp222
g87
I417
sg50
I460
sg88
I325
sg82
I872
sg63
I865
sg90
I879
sg57
I593
sg6
I192
sg11
I336
sg126
I814
sg14
I626
sg64
I941
sg16
I560
sg59
I787
sg65
I675
sg114
I837
sg105
I876
sg66
I290
sg91
I2
sg22
I156
sg92
I628
sg67
I478
sg26
I181
sg34
I41
sg70
I922
sg31
I525
sg84
I272
sg96
I846
sg35
I220
sg104
I969
sg37
I913
sg39
I120
sg76
I893
sg78
I263
sg43
I593
sg119
I388
sg45
I60
sg46
I816
ssS'client.013'
p223
(dp224
g100
I89
sg50
I349
sg88
I191
sg82
I338
sg5
I803
sg92
I886
sg84
I261
sg29
I128
sg8
I292
sg9
I482
sg10
I190
sg126
I731
sg101
I725
sg13
I820
sg14
I446
sg25
I730
sg59
I701
sg65
I621
sg19
I234
sg41
I327
sg66
I131
sg64
I791
sg115
I855
sg90
I601
sg36
I500
sg23
I960
sg93
I851
sg81
I387
sg94
I199
sg28
I23
sg56
I338
sg34
I342
sg30
I767
sg52
I631
sg57
I92
sg72
I546
sg73
I195
sg74
I457
sg75
I748
sg104
I767
sg38
I854
sg39
I350
sg63
I401
sg77
I807
sg105
I757
sg119
I30
sg45
I587
sg46
I307
sg47
I301
ssS'client.010'
p225
(dp226
g108
I448
sg20
I976
sg82
I29
sg90
I274
sg8
I381
sg12
I251
sg3
I744
sg55
I92
sg115
I400
sg22
I270
sg93
I313
sg69
I797
sg28
I217
sg56
I388
sg70
I43
sg111
I928
sg25
I687
sg72
I403
sg38
I682
sg76
I9
sg77
I549
sg18
I125
sg78
I246
sg43
I456
sg119
I509
sg45
I606
sg47
I628
ssS'client.011'
p227
(dp228
g54
I880
sg87
I463
sg50
I364
sg88
I969
sg89
I26
sg90
I994
sg6
I204
sg51
I133
sg8
I366
sg52
I675
sg11
I405
sg126
I786
sg101
I756
sg13
I209
sg73
I379
sg4
I847
sg53
I849
sg19
I112
sg41
I304
sg44
I525
sg23
I545
sg93
I773
sg103
I751
sg111
I321
sg26
I256
sg83
I525
sg56
I192
sg29
I830
sg70
I128
sg30
I768
sg116
I90
sg7
I515
sg95
I830
sg84
I217
sg3
I656
sg74
I606
sg96
I708
sg97
I943
sg72
I10
sg37
I550
sg39
I666
sg40
I598
sg42
I127
sg32
I510
sg45
I214
ssS'client.016'
p229
(dp230
g108
I582
sg59
I414
sg89
I785
sg92
I358
sg102
I769
sg4
I450
sg51
I147
sg9
I545
sg101
I313
sg15
I562
sg64
I34
sg16
I127
sg17
I57
sg53
I380
sg41
I216
sg91
I336
sg22
I38
sg24
I88
sg54
I955
sg14
I210
sg83
I842
sg56
I471
sg29
I32
sg7
I564
sg20
I244
sg71
I65
sg75
I983
sg25
I571
sg52
I245
sg96
I960
sg72
I617
sg104
I378
sg40
I637
sg105
I624
sg45
I302
sg93
I47
sg47
I781
ssS'client.017'
p231
(dp232
g100
I643
sg50
I295
sg82
I159
sg108
I16
sg6
I162
sg7
I915
sg8
I455
sg11
I691
sg101
I869
sg14
I126
sg15
I826
sg53
I338
sg41
I935
sg66
I624
sg115
I782
sg21
I679
sg68
I508
sg27
I129
sg73
I966
sg97
I397
sg36
I991
sg77
I947
sg43
I57
sg119
I222
sg44
I743
ssS'client.014'
p233
(dp234
g108
I296
sg87
I1000
sg50
I384
sg4
I273
sg89
I829
sg5
I969
sg90
I397
sg101
I344
sg51
I619
sg52
I836
sg102
I658
sg76
I570
sg25
I1
sg91
I719
sg59
I496
sg40
I340
sg65
I411
sg82
I202
sg41
I107
sg62
I874
sg83
I920
sg115
I567
sg16
I214
sg22
I79
sg103
I17
sg67
I474
sg94
I793
sg28
I829
sg56
I56
sg70
I586
sg116
I183
sg95
I83
sg36
I343
sg33
I796
sg72
I443
sg38
I786
sg58
I891
sg18
I286
sg78
I49
sg44
I522
ssS'client.015'
p235
(dp236
g108
I583
sg87
I252
sg59
I864
sg90
I594
sg57
I854
sg6
I847
sg7
I867
sg9
I805
sg126
I266
sg101
I498
sg64
I137
sg16
I650
sg17
I708
sg65
I710
sg19
I901
sg41
I709
sg22
I340
sg92
I33
sg23
I938
sg93
I187
sg103
I183
sg26
I811
sg55
I740
sg116
I367
sg95
I786
sg32
I35
sg96
I453
sg35
I908
sg36
I944
sg78
I178
sg119
I961
sg44
I323
sg46
I157
ssS'client.018'
p237
(dp238
g100
I896
sg65
I533
sg75
I208
sg88
I113
sg82
I759
sg55
I116
sg56
I257
sg66
I227
sg58
I97
sg87
I872
sg10
I57
sg95
I498
sg57
I857
sg36
I344
sg73
I4
sg104
I221
sg59
I409
sg15
I523
sg14
I728
sg17
I175
ssS'client.019'
p239
(dp240
g20
I169
sg5
I719
sg51
I238
sg8
I3
sg10
I715
sg81
I927
sg15
I152
sg16
I702
sg17
I538
sg114
I101
sg62
I568
sg93
I535
sg68
I501
sg27
I435
sg56
I329
sg70
I839
sg30
I828
sg116
I852
sg36
I532
sg72
I102
sg39
I64
sg63
I78
sg18
I664
sg105
I307
sg45
I512
ssS'client.001'
p241
(dp242
g108
I568
sg50
I497
sg88
I942
sg89
I934
sg5
I156
sg6
I969
sg51
I332
sg8
I567
sg11
I631
sg126
I729
sg13
I771
sg15
I159
sg14
I86
sg17
I236
sg82
I546
sg19
I894
sg22
I634
sg23
I448
sg24
I102
sg54
I606
sg32
I81
sg34
I926
sg70
I847
sg116
I250
sg7
I920
sg57
I74
sg36
I190
sg33
I607
sg74
I442
sg72
I193
sg37
I21
sg76
I899
sg40
I677
sg119
I837
sg44
I321
sg45
I191
sg93
I243
sg59
I742
sg47
I346
ssS'client.000'
p243
(dp244
g53
I186
sg65
I455
sg46
I446
sg72
I425
sg19
I664
sg82
I63
sg100
I640
sg126
I473
sg62
I988
sg30
I102
sg8
I73
sg34
I103
sg70
I727
sg10
I908
sg116
I553
sg21
I409
sg29
I63
sg13
I922
sg93
I96
sg59
I628
ssS'client.003'
p245
(dp246
g108
I7
sg4
I764
sg90
I398
sg57
I899
sg29
I199
sg10
I703
sg11
I764
sg102
I82
sg64
I586
sg20
I704
sg26
I302
sg83
I279
sg31
I663
sg95
I430
sg84
I424
sg71
I946
sg25
I669
sg96
I120
sg35
I609
sg36
I579
sg77
I561
sg119
I25
ssS'client.002'
p247
(dp248
g88
I885
sg76
I613
sg90
I270
sg6
I917
sg8
I434
sg40
I320
sg64
I335
sg16
I471
sg53
I796
sg114
I508
sg41
I246
sg66
I168
sg115
I53
sg24
I21
sg68
I336
sg28
I535
sg70
I888
sg116
I93
sg84
I821
sg73
I92
sg74
I606
sg96
I759
sg39
I348
sg58
I776
sg77
I977
sg18
I956
sg78
I793
sg43
I545
sg44
I358
sg45
I169
sg46
I24
ssS'client.005'
p249
(dp250
g108
I488
sg87
I760
sg59
I321
sg89
I141
sg5
I903
sg29
I324
sg8
I140
sg9
I947
sg10
I102
sg126
I345
sg102
I52
sg13
I732
sg76
I434
sg91
I790
sg20
I255
sg53
I987
sg41
I989
sg66
I466
sg115
I362
sg21
I15
sg44
I568
sg58
I386
sg22
I330
sg23
I853
sg93
I357
sg103
I328
sg51
I10
sg94
I662
sg83
I776
sg7
I991
sg70
I881
sg116
I905
sg111
I615
sg95
I650
sg84
I548
sg71
I531
sg3
I577
sg96
I581
sg97
I937
sg68
I23
sg37
I992
sg63
I56
sg77
I290
sg105
I451
sg32
I78
sg45
I760
sg46
I186
sg47
I876
sg12
I844
ssS'client.004'
p251
(dp252
g108
I472
sg20
I903
sg89
I84
sg92
I57
sg11
I951
sg126
I432
sg101
I650
sg18
I417
sg21
I334
sg44
I198
sg90
I53
sg23
I414
sg103
I538
sg27
I304
sg28
I934
sg70
I344
sg84
I106
sg3
I529
sg75
I600
sg63
I382
sg40
I316
sg105
I515
sg32
I463
ssS'client.007'
p253
(dp254
g108
I377
sg87
I636
sg4
I359
sg100
I822
sg52
I13
sg10
I196
sg13
I658
sg91
I571
sg18
I271
sg21
I663
sg93
I654
sg54
I84
sg67
I599
sg68
I857
sg26
I691
sg30
I844
sg111
I435
sg73
I660
sg97
I206
sg35
I3
sg77
I903
sg40
I754
sg119
I729
sg46
I488
ssS'client.006'
p255
(dp256
g100
I4
sg87
I110
sg50
I983
sg88
I697
sg5
I718
sg90
I629
sg6
I724
sg8
I758
sg52
I956
sg102
I431
sg15
I671
sg16
I822
sg4
I573
sg65
I537
sg74
I59
sg41
I274
sg58
I778
sg23
I243
sg24
I247
sg54
I216
sg26
I408
sg69
I810
sg28
I880
sg56
I7
sg34
I630
sg70
I491
sg30
I801
sg116
I937
sg111
I243
sg36
I294
sg25
I702
sg9
I193
sg96
I468
sg75
I414
sg37
I4
sg38
I249
sg39
I756
sg63
I221
sg77
I434
sg40
I504
sg78
I352
sg42
I732
sg43
I611
sg44
I760
ssS'client.009'
p257
(dp258
g50
I783
sg59
I71
sg89
I681
sg92
I899
sg7
I504
sg8
I175
sg52
I42
sg10
I286
sg11
I826
sg33
I459
sg126
I384
sg13
I306
sg14
I589
sg25
I329
sg66
I862
sg115
I183
sg21
I965
sg44
I485
sg23
I149
sg24
I934
sg26
I535
sg56
I841
sg15
I70
sg34
I158
sg30
I220
sg116
I462
sg95
I216
sg84
I751
sg3
I491
sg96
I733
sg35
I321
sg37
I907
sg63
I948
sg40
I701
sg43
I968
sg119
I715
sg32
I211
sg45
I557
sg93
I536
sg47
I115
sg12
I330
ssS'client.008'
p259
(dp260
g88
I164
sg52
I495
sg10
I652
sg126
I536
sg102
I385
sg33
I834
sg91
I708
sg53
I410
sg65
I580
sg41
I800
sg64
I385
sg44
I255
sg24
I986
sg67
I174
sg81
I242
sg26
I126
sg69
I989
sg55
I142
sg70
I470
sg116
I450
sg95
I163
sg57
I980
sg73
I235
sg96
I341
sg37
I115
sg38
I151
sg39
I792
sg40
I484
sg32
I804
sg46
I560
ssS'client.034'
p261
(dp262
g108
I239
sg65
I635
sg43
I9
sg72
I708
sg83
I654
sg76
I865
sg92
I312
sg126
I629
sg63
I63
sg77
I341
sg30
I818
sg97
I594
sg6
I197
sg57
I866
sg71
I830
sg47
I960
sg25
I910
sg22
I291
sg39
I998
sg16
I517
sg95
I732
ssS'client.035'
p263
(dp264
g100
I870
sg87
I69
sg90
I119
sg101
I909
sg6
I439
sg8
I540
sg10
I291
sg102
I703
sg53
I590
sg83
I543
sg22
I476
sg26
I769
sg94
I226
sg55
I432
sg56
I798
sg70
I194
sg31
I849
sg95
I959
sg57
I727
sg71
I907
sg97
I928
sg35
I365
sg39
I7
sg40
I248
sg78
I111
ssS'client.036'
p265
(dp266
g100
I332
sg20
I528
sg51
I112
sg8
I148
sg9
I358
sg13
I594
sg15
I700
sg14
I195
sg91
I807
sg53
I71
sg41
I139
sg115
I82
sg22
I504
sg24
I597
sg103
I605
sg26
I946
sg55
I554
sg30
I213
sg95
I990
sg57
I800
sg96
I652
sg97
I614
sg54
I80
sg75
I683
sg104
I672
sg39
I681
sg18
I282
sg42
I695
sg119
I95
sg32
I550
sg45
I506
sg46
I624
ssS'client.037'
p267
(dp268
g87
I116
sg20
I684
sg76
I201
sg92
I14
sg9
I224
sg11
I569
sg126
I393
sg101
I949
sg53
I974
sg65
I233
sg114
I898
sg41
I201
sg115
I896
sg54
I63
sg69
I692
sg111
I842
sg3
I113
sg97
I814
sg35
I918
sg38
I273
sg58
I622
sg77
I966
sg18
I80
sg42
I312
sg46
I791
ssS'client.030'
p269
(dp270
g108
I815
sg59
I294
sg82
I621
sg5
I88
sg92
I937
sg102
I885
sg7
I175
sg9
I224
sg10
I777
sg11
I394
sg126
I379
sg101
I138
sg13
I57
sg14
I583
sg64
I656
sg91
I734
sg17
I382
sg18
I735
sg20
I512
sg89
I935
sg41
I956
sg58
I161
sg23
I13
sg24
I791
sg67
I95
sg81
I917
sg69
I940
sg83
I710
sg34
I919
sg30
I856
sg111
I774
sg95
I678
sg57
I35
sg52
I817
sg96
I278
sg97
I950
sg35
I208
sg36
I435
sg39
I439
sg63
I616
sg40
I57
sg44
I785
sg47
I130
ssS'client.031'
p271
(dp272
g100
I698
sg87
I762
sg50
I180
sg59
I341
sg108
I136
sg5
I451
sg51
I171
sg11
I715
sg126
I791
sg101
I724
sg88
I22
sg13
I877
sg33
I248
sg91
I739
sg20
I934
sg65
I414
sg114
I983
sg62
I545
sg21
I872
sg17
I20
sg24
I47
sg25
I76
sg68
I673
sg26
I215
sg69
I379
sg27
I807
sg56
I303
sg76
I192
sg70
I79
sg116
I617
sg111
I26
sg95
I502
sg57
I238
sg73
I259
sg96
I222
sg36
I631
sg104
I835
sg38
I334
sg39
I804
sg63
I379
sg19
I472
sg40
I66
sg31
I41
sg45
I519
sg46
I755
sg47
I672
ssS'client.032'
p273
(dp274
g108
I453
sg89
I58
sg76
I784
sg92
I120
sg57
I702
sg51
I331
sg8
I969
sg102
I581
sg14
I351
sg91
I979
sg17
I920
sg114
I738
sg105
I977
sg66
I617
sg63
I19
sg115
I608
sg21
I934
sg23
I613
sg93
I575
sg54
I704
sg69
I554
sg28
I42
sg70
I680
sg116
I237
sg95
I720
sg84
I341
sg3
I36
sg74
I814
sg96
I935
sg35
I86
sg75
I612
sg104
I8
sg39
I416
sg58
I775
sg78
I658
sg43
I497
sg45
I376
sg46
I792
sg47
I510
ssS'client.033'
p275
(dp276
g100
I244
sg87
I770
sg4
I404
sg51
I139
sg8
I476
sg14
I344
sg64
I236
sg65
I454
sg66
I391
sg23
I272
sg93
I970
sg25
I182
sg94
I723
sg29
I725
sg70
I737
sg31
I210
sg33
I642
sg96
I974
sg37
I416
sg76
I373
sg42
I347
sg46
I71
ssS'client.038'
p277
(dp278
g29
I965
sg8
I38
sg52
I641
sg12
I75
sg102
I265
sg64
I385
sg16
I199
sg53
I985
sg65
I444
sg19
I475
sg78
I436
sg94
I404
sg91
I569
sg55
I274
sg115
I178
sg21
I11
sg23
I677
sg24
I904
sg103
I147
sg67
I346
sg68
I589
sg27
I611
sg83
I313
sg56
I787
sg34
I806
sg70
I300
sg116
I77
sg95
I977
sg84
I691
sg72
I683
sg37
I409
sg38
I681
sg58
I32
sg77
I182
sg40
I667
sg105
I61
sg42
I468
sg43
I922
sg119
I747
sg45
I460
sg46
I189
ssS'client.039'
p279
(dp280
g100
I795
sg87
I909
sg50
I200
sg108
I923
sg8
I130
sg101
I42
sg15
I18
sg64
I903
sg91
I771
sg53
I540
sg65
I2
sg55
I347
sg22
I780
sg68
I468
sg27
I709
sg83
I364
sg56
I926
sg31
I378
sg95
I464
sg84
I764
sg72
I22
sg74
I339
sg97
I979
sg36
I903
sg38
I351
sg42
I15
sg46
I810
sg14
I698
ssS'client.029'
p281
(dp282
g108
I901
sg59
I795
sg5
I321
sg90
I321
sg51
I168
sg9
I159
sg33
I242
sg12
I671
sg64
I545
sg17
I810
sg114
I75
sg62
I724
sg21
I77
sg22
I746
sg93
I600
sg54
I551
sg67
I445
sg25
I516
sg55
I676
sg29
I813
sg30
I379
sg31
I206
sg3
I468
sg96
I291
sg97
I30
sg38
I534
sg39
I813
sg32
I241
sg46
I76
ssS'client.028'
p283
(dp284
g87
I269
sg4
I789
sg92
I620
sg101
I384
sg6
I850
sg51
I196
sg10
I381
sg11
I435
sg126
I282
sg102
I258
sg14
I927
sg73
I53
sg88
I512
sg94
I9
sg41
I864
sg66
I808
sg17
I688
sg93
I819
sg103
I977
sg67
I170
sg68
I180
sg25
I747
sg55
I48
sg30
I241
sg31
I509
sg57
I334
sg3
I561
sg96
I430
sg39
I404
sg76
I341
sg77
I144
sg40
I104
sg45
I592
sg47
I464
ssS'client.023'
p285
(dp286
g108
I390
sg50
I962
sg4
I87
sg89
I2
sg90
I343
sg57
I161
sg6
I362
sg52
I738
sg12
I21
sg101
I100
sg88
I657
sg59
I400
sg102
I984
sg82
I94
sg114
I106
sg62
I720
sg28
I686
sg115
I570
sg103
I375
sg17
I157
sg23
I985
sg24
I938
sg54
I724
sg26
I932
sg27
I98
sg83
I389
sg56
I954
sg70
I303
sg30
I158
sg111
I823
sg44
I309
sg71
I932
sg33
I304
sg74
I563
sg55
I247
sg104
I91
sg37
I565
sg77
I136
sg78
I904
sg31
I711
sg66
I1000
sg47
I46
ssS'client.022'
p287
(dp288
g100
I25
sg50
I437
sg20
I43
sg82
I34
sg5
I675
sg90
I545
sg6
I267
sg7
I720
sg8
I586
sg52
I728
sg40
I773
sg11
I354
sg126
I7
sg101
I319
sg68
I594
sg15
I830
sg91
I499
sg59
I476
sg53
I190
sg74
I738
sg62
I465
sg4
I103
sg115
I802
sg16
I735
sg42
I628
sg54
I669
sg67
I2
sg81
I387
sg26
I428
sg94
I551
sg56
I766
sg51
I970
sg70
I904
sg30
I536
sg116
I537
sg95
I257
sg71
I900
sg3
I16
sg9
I186
sg37
I976
sg38
I230
sg76
I85
sg77
I324
sg18
I957
sg105
I172
sg63
I510
sg119
I97
sg45
I355
sg47
I31
ssS'client.021'
p289
(dp290
g3
I4
sg50
I629
sg88
I823
sg89
I477
sg90
I952
sg57
I566
sg6
I509
sg7
I259
sg40
I874
sg126
I527
sg101
I192
sg25
I962
sg20
I125
sg53
I629
sg65
I309
sg114
I286
sg62
I603
sg4
I186
sg64
I599
sg22
I501
sg92
I298
sg67
I904
sg94
I2
sg56
I36
sg51
I817
sg70
I506
sg30
I54
sg31
I749
sg95
I719
sg84
I872
sg36
I23
sg73
I643
sg74
I777
sg96
I167
sg97
I414
sg35
I253
sg75
I528
sg104
I517
sg38
I374
sg77
I434
sg18
I769
sg78
I1
sg119
I643
sg34
I570
sg46
I356
sg59
I740
ssS'client.020'
p291
(dp292
g100
I417
sg50
I306
sg88
I763
sg41
I646
sg90
I80
sg4
I970
sg51
I229
sg10
I149
sg11
I371
sg126
I199
sg101
I386
sg68
I31
sg14
I783
sg16
I875
sg17
I352
sg40
I453
sg19
I315
sg20
I850
sg62
I185
sg55
I932
sg115
I853
sg21
I706
sg22
I37
sg92
I728
sg24
I116
sg103
I35
sg67
I26
sg81
I9
sg69
I375
sg27
I179
sg28
I170
sg56
I824
sg34
I337
sg70
I484
sg30
I160
sg31
I29
sg95
I305
sg71
I740
sg74
I532
sg97
I934
sg75
I608
sg114
I598
sg37
I52
sg39
I497
sg77
I956
sg18
I605
sg105
I658
sg42
I234
sg119
I724
sg59
I459
ssS'client.027'
p293
(dp294
g108
I523
sg62
I830
sg20
I481
sg89
I816
sg100
I808
sg7
I994
sg9
I387
sg102
I417
sg91
I590
sg4
I564
sg53
I517
sg82
I937
sg114
I234
sg41
I593
sg66
I473
sg55
I714
sg21
I312
sg68
I804
sg26
I270
sg69
I951
sg28
I198
sg96
I486
sg97
I819
sg35
I133
sg37
I858
sg39
I940
sg58
I460
sg78
I845
sg42
I700
sg119
I265
sg44
I189
sg46
I430
ssS'client.026'
p295
(dp296
g108
I896
sg63
I223
sg101
I198
sg64
I303
sg53
I979
sg65
I284
sg41
I666
sg83
I361
sg23
I919
sg54
I922
sg68
I12
sg32
I183
sg28
I92
sg30
I6
sg57
I772
sg71
I199
sg73
I625
sg74
I704
sg55
I447
sg38
I182
sg58
I906
sg77
I560
sg78
I908
sg44
I258
ssS'client.025'
p297
(dp298
g87
I442
sg20
I528
sg82
I383
sg5
I747
sg92
I670
sg101
I354
sg6
I94
sg52
I44
sg10
I512
sg126
I318
sg102
I357
sg88
I399
sg15
I445
sg14
I291
sg91
I161
sg17
I318
sg65
I176
sg19
I986
sg105
I907
sg64
I515
sg115
I539
sg22
I658
sg23
I602
sg93
I183
sg54
I770
sg67
I695
sg68
I989
sg69
I726
sg32
I359
sg30
I490
sg116
I564
sg31
I248
sg95
I739
sg57
I912
sg71
I850
sg73
I956
sg74
I648
sg96
I560
sg25
I131
sg37
I338
sg58
I525
sg18
I564
sg78
I848
sg42
I745
sg44
I176
sg45
I246
sg59
I652
ssS'client.024'
p299
(dp300
g100
I387
sg50
I248
sg4
I345
sg82
I16
sg5
I583
sg6
I611
sg51
I213
sg52
I84
sg17
I215
sg126
I810
sg102
I361
sg15
I818
sg14
I904
sg88
I967
sg94
I411
sg62
I20
sg31
I961
sg28
I213
sg83
I262
sg9
I736
sg58
I746
sg22
I322
sg93
I546
sg67
I138
sg27
I480
sg55
I394
sg34
I457
sg70
I658
sg30
I527
sg111
I954
sg33
I832
sg74
I723
sg97
I764
sg36
I867
sg104
I783
sg38
I710
sg39
I732
sg76
I803
sg78
I279
sg42
I398
sg32
I703
sg66
I945
sg47
I771
ss.